; Function Attrs: nofree norecurse nosync nounwind memory(none) uwtable
define i32 @Dau_CountSymms(i64 noundef %0, i32 noundef %1) local_unnamed_addr #7 {
  %3 = alloca i64, align 8
  %4 = alloca i64, align 8
  %5 = alloca i64, align 8
  store i64 %0, ptr %3, align 8, !tbaa !18
  call void @llvm.lifetime.start.p0(i64 8, ptr nonnull %4) #26
  call void @llvm.lifetime.start.p0(i64 8, ptr nonnull %5) #26
  %6 = icmp sgt i32 %1, 0
  br i1 %6, label %.lr.ph19, label %._crit_edge

.loopexit:                                        ; preds = %.lr.ph, %.lr.ph19
  %.1.lcssa = phi i32 [ %.018, %.lr.ph19 ], [ %10, %.lr.ph ]
  %exitcond21.not = icmp eq i32 %7, %1
  br i1 %exitcond21.not, label %._crit_edge, label %.lr.ph19, !llvm.loop !37

.lr.ph19:                                         ; preds = %2, %.loopexit
  %.018 = phi i32 [ %.1.lcssa, %.loopexit ], [ 0, %2 ]
  %.01317 = phi i32 [ %7, %.loopexit ], [ 0, %2 ]
  %7 = add nuw nsw i32 %.01317, 1
  %8 = icmp slt i32 %7, %1
  br i1 %8, label %.lr.ph, label %.loopexit

.lr.ph:                                           ; preds = %.lr.ph19, %.lr.ph
  %.116 = phi i32 [ %10, %.lr.ph ], [ %.018, %.lr.ph19 ]
  %.01215 = phi i32 [ %11, %.lr.ph ], [ %7, %.lr.ph19 ]
  %9 = call fastcc i32 @Abc_TtVarsAreSymmetric(ptr noundef %3, i32 noundef %1, i32 noundef %.01317, i32 noundef %.01215, ptr noundef %4, ptr noundef %5)
  %10 = add nsw i32 %9, %.116
  %11 = add nuw i32 %.01215, 1
  %exitcond.not = icmp eq i32 %11, %1
  br i1 %exitcond.not, label %.loopexit, label %.lr.ph, !llvm.loop !38

._crit_edge:                                      ; preds = %.loopexit, %2
  %.0.lcssa = phi i32 [ 0, %2 ], [ %.1.lcssa, %.loopexit ]
  call void @llvm.lifetime.end.p0(i64 8, ptr nonnull %5) #26
  call void @llvm.lifetime.end.p0(i64 8, ptr nonnull %4) #26
  ret i32 %.0.lcssa
}